; Function Attrs: mustprogress nofree nounwind uwtable
define void @_ZN17double_conversion6Bignum9AddBignumERKS0_(ptr noundef nonnull align 4 captures(none) dereferenceable(516) %0, ptr noundef nonnull readonly align 4 captures(none) dereferenceable(516) %1) local_unnamed_addr #5 align 2 {
  %3 = getelementptr inbounds nuw i8, ptr %0, i64 2
  %4 = load i16, ptr %3, align 2, !tbaa !8
  %5 = getelementptr inbounds nuw i8, ptr %1, i64 2
  %6 = load i16, ptr %5, align 2, !tbaa !8
  %7 = icmp sgt i16 %4, %6
  %.pre = load i16, ptr %0, align 4, !tbaa !3
  br i1 %7, label %8, label %_ZN17double_conversion6Bignum5AlignERKS0_.exit

8:                                                ; preds = %2
  %9 = sext i16 %6 to i32
  %10 = sext i16 %4 to i32
  %11 = sub nsw i32 %10, %9
  %12 = sext i16 %.pre to i32
  %13 = add nsw i32 %11, %12
  %14 = icmp sgt i32 %13, 128
  br i1 %14, label %19, label %_ZN17double_conversion6Bignum14EnsureCapacityEi.exit.preheader.i

_ZN17double_conversion6Bignum14EnsureCapacityEi.exit.preheader.i: ; preds = %8
  %15 = icmp sgt i16 %.pre, 0
  br i1 %15, label %.lr.ph.i, label %.lr.ph20.i

.lr.ph.i:                                         ; preds = %_ZN17double_conversion6Bignum14EnsureCapacityEi.exit.preheader.i
  %16 = getelementptr inbounds nuw i8, ptr %0, i64 4
  %17 = zext nneg i16 %.pre to i64
  %18 = sext i32 %11 to i64
  br label %_ZN17double_conversion6Bignum14EnsureCapacityEi.exit.i

19:                                               ; preds = %8
  tail call void @abort() #12
  unreachable

.lr.ph20.i:                                       ; preds = %_ZN17double_conversion6Bignum14EnsureCapacityEi.exit.i, %_ZN17double_conversion6Bignum14EnsureCapacityEi.exit.preheader.i
  %20 = getelementptr inbounds nuw i8, ptr %0, i64 4
  %21 = zext nneg i32 %11 to i64
  %22 = shl nuw nsw i64 %21, 2
  tail call void @llvm.memset.p0.i64(ptr nonnull align 4 %20, i8 0, i64 %22, i1 false), !tbaa !9
  %23 = trunc i32 %11 to i16
  %24 = add i16 %.pre, %23
  store i16 %24, ptr %0, align 4, !tbaa !3
  %25 = sub i16 %4, %23
  store i16 %25, ptr %3, align 2, !tbaa !8
  %.pre65 = load i16, ptr %5, align 2, !tbaa !8
  br label %_ZN17double_conversion6Bignum5AlignERKS0_.exit

_ZN17double_conversion6Bignum14EnsureCapacityEi.exit.i: ; preds = %_ZN17double_conversion6Bignum14EnsureCapacityEi.exit.i, %.lr.ph.i
  %indvars.iv.i = phi i64 [ %17, %.lr.ph.i ], [ %indvars.iv.next.i, %_ZN17double_conversion6Bignum14EnsureCapacityEi.exit.i ]
  %indvars.iv.next.i = add nsw i64 %indvars.iv.i, -1
  %26 = getelementptr inbounds nuw [128 x i32], ptr %16, i64 0, i64 %indvars.iv.next.i
  %27 = load i32, ptr %26, align 4, !tbaa !9
  %28 = add nsw i64 %indvars.iv.next.i, %18
  %29 = getelementptr inbounds [128 x i32], ptr %16, i64 0, i64 %28
  store i32 %27, ptr %29, align 4, !tbaa !9
  %30 = icmp samesign ugt i64 %indvars.iv.i, 1
  br i1 %30, label %_ZN17double_conversion6Bignum14EnsureCapacityEi.exit.i, label %.lr.ph20.i, !llvm.loop !26

_ZN17double_conversion6Bignum5AlignERKS0_.exit:   ; preds = %2, %.lr.ph20.i
  %31 = phi i16 [ %6, %2 ], [ %.pre65, %.lr.ph20.i ]
  %32 = phi i16 [ %4, %2 ], [ %25, %.lr.ph20.i ]
  %33 = phi i16 [ %.pre, %2 ], [ %24, %.lr.ph20.i ]
  %34 = sext i16 %33 to i32
  %35 = sext i16 %32 to i32
  %36 = add nsw i32 %35, %34
  %37 = load i16, ptr %1, align 4, !tbaa !3
  %38 = sext i16 %37 to i32
  %39 = sext i16 %31 to i32
  %40 = add nsw i32 %39, %38
  %.sroa.speculated35 = tail call i32 @llvm.smax.i32(i32 %36, i32 %40)
  %reass.sub = sub nsw i32 %.sroa.speculated35, %35
  %41 = icmp sgt i32 %reass.sub, 127
  br i1 %41, label %42, label %_ZN17double_conversion6Bignum14EnsureCapacityEi.exit

42:                                               ; preds = %_ZN17double_conversion6Bignum5AlignERKS0_.exit
  tail call void @abort() #12
  unreachable

_ZN17double_conversion6Bignum14EnsureCapacityEi.exit: ; preds = %_ZN17double_conversion6Bignum5AlignERKS0_.exit
  %43 = sub nsw i32 %39, %35
  %44 = icmp sgt i32 %43, %34
  br i1 %44, label %.lr.ph, label %.preheader42

.lr.ph:                                           ; preds = %_ZN17double_conversion6Bignum14EnsureCapacityEi.exit
  %45 = sext i16 %33 to i64
  %46 = shl nsw i64 %45, 2
  %47 = getelementptr i8, ptr %0, i64 %46
  %scevgep = getelementptr i8, ptr %47, i64 4
  %48 = xor i32 %35, -1
  %49 = add nsw i32 %48, %39
  %50 = sub nsw i32 %49, %34
  %51 = zext i32 %50 to i64
  %52 = shl nuw nsw i64 %51, 2
  %53 = add nuw nsw i64 %52, 4
  tail call void @llvm.memset.p0.i64(ptr noundef nonnull align 4 dereferenceable(1) %scevgep, i8 0, i64 %53, i1 false), !tbaa !9
  br label %.preheader42

.preheader42:                                     ; preds = %.lr.ph, %_ZN17double_conversion6Bignum14EnsureCapacityEi.exit
  %54 = icmp sgt i16 %37, 0
  br i1 %54, label %.lr.ph47, label %._crit_edge

.lr.ph47:                                         ; preds = %.preheader42
  %55 = getelementptr inbounds nuw i8, ptr %0, i64 4
  %56 = getelementptr inbounds nuw i8, ptr %1, i64 4
  %57 = sext i32 %43 to i64
  %58 = sext i16 %33 to i64
  %wide.trip.count = zext nneg i32 %38 to i64
  br label %63

.preheader:                                       ; preds = %68
  %59 = trunc nsw i64 %indvars.iv.next58 to i32
  %.not49 = icmp ult i32 %73, 268435456
  br i1 %.not49, label %._crit_edge, label %.lr.ph52

.lr.ph52:                                         ; preds = %.preheader
  %60 = getelementptr inbounds nuw i8, ptr %0, i64 4
  %sext = shl i64 %indvars.iv.next58, 32
  %61 = ashr exact i64 %sext, 32
  %62 = sext i16 %33 to i64
  br label %77

63:                                               ; preds = %.lr.ph47, %68
  %indvars.iv57 = phi i64 [ %57, %.lr.ph47 ], [ %indvars.iv.next58, %68 ]
  %indvars.iv = phi i64 [ 0, %.lr.ph47 ], [ %indvars.iv.next, %68 ]
  %.046 = phi i32 [ 0, %.lr.ph47 ], [ %76, %68 ]
  %64 = icmp slt i64 %indvars.iv57, %58
  br i1 %64, label %65, label %68

65:                                               ; preds = %63
  %66 = getelementptr inbounds [128 x i32], ptr %55, i64 0, i64 %indvars.iv57
  %67 = load i32, ptr %66, align 4, !tbaa !9
  br label %68

68:                                               ; preds = %63, %65
  %69 = phi i32 [ %67, %65 ], [ 0, %63 ]
  %70 = getelementptr inbounds nuw [128 x i32], ptr %56, i64 0, i64 %indvars.iv
  %71 = load i32, ptr %70, align 4, !tbaa !9
  %72 = add i32 %69, %.046
  %73 = add i32 %72, %71
  %74 = and i32 %73, 268435455
  %75 = getelementptr inbounds [128 x i32], ptr %55, i64 0, i64 %indvars.iv57
  store i32 %74, ptr %75, align 4, !tbaa !9
  %76 = lshr i32 %73, 28
  %indvars.iv.next58 = add nsw i64 %indvars.iv57, 1
  %indvars.iv.next = add nuw nsw i64 %indvars.iv, 1
  %exitcond.not = icmp eq i64 %indvars.iv.next, %wide.trip.count
  br i1 %exitcond.not, label %.preheader, label %63, !llvm.loop !27

77:                                               ; preds = %.lr.ph52, %82
  %indvars.iv62 = phi i64 [ %61, %.lr.ph52 ], [ %indvars.iv.next63, %82 ]
  %.151 = phi i32 [ %76, %.lr.ph52 ], [ %87, %82 ]
  %78 = icmp slt i64 %indvars.iv62, %62
  br i1 %78, label %79, label %82

79:                                               ; preds = %77
  %80 = getelementptr inbounds [128 x i32], ptr %60, i64 0, i64 %indvars.iv62
  %81 = load i32, ptr %80, align 4, !tbaa !9
  br label %82

82:                                               ; preds = %77, %79
  %83 = phi i32 [ %81, %79 ], [ 0, %77 ]
  %84 = add i32 %83, %.151
  %85 = and i32 %84, 268435455
  %86 = getelementptr inbounds [128 x i32], ptr %60, i64 0, i64 %indvars.iv62
  store i32 %85, ptr %86, align 4, !tbaa !9
  %87 = lshr i32 %84, 28
  %indvars.iv.next63 = add nsw i64 %indvars.iv62, 1
  %.not = icmp ult i32 %84, 268435456
  br i1 %.not, label %._crit_edge.loopexit, label %77, !llvm.loop !28

._crit_edge.loopexit:                             ; preds = %82
  %88 = trunc nsw i64 %indvars.iv.next63 to i32
  br label %._crit_edge

._crit_edge:                                      ; preds = %.preheader42, %._crit_edge.loopexit, %.preheader
  %.141.lcssa = phi i32 [ %59, %.preheader ], [ %88, %._crit_edge.loopexit ], [ %43, %.preheader42 ]
  %.sroa.speculated = tail call i32 @llvm.smax.i32(i32 %.141.lcssa, i32 %34)
  %89 = trunc i32 %.sroa.speculated to i16
  store i16 %89, ptr %0, align 4, !tbaa !3
  ret void
}